; ModuleID = '15/367.c'
source_filename = "15/367.c"
target datalayout = "e-m:e-p270:32:32-p271:32:32-p272:64:64-i64:64-f80:128-n8:16:32:64-S128"
target triple = "x86_64-pc-linux-gnu"

@.str = private unnamed_addr constant [3 x i8] c"%d\00", align 1

; Function Attrs: noinline nounwind uwtable
define dso_local i32 @main(i32 %0, i8** %1) #0 {
  %3 = alloca i32, align 4
  %4 = alloca i32, align 4
  %5 = alloca i8**, align 8
  %6 = alloca i32, align 4
  %7 = alloca i32, align 4
  %8 = alloca i32, align 4
  %9 = alloca i32, align 4
  %10 = alloca i32, align 4
  %11 = alloca i32, align 4
  %12 = alloca i32, align 4
  %13 = alloca i32, align 4
  %14 = alloca i32, align 4
  %15 = alloca [1000 x [1000 x i32]], align 16
  %16 = alloca [1000 x i32], align 16
  %17 = alloca [1000 x [1000 x i32]], align 16
  %18 = alloca [1000 x [1000 x i32]], align 16
  store i32 0, i32* %3, align 4
  store i32 %0, i32* %4, align 4
  store i8** %1, i8*** %5, align 8
  store i32 0, i32* %14, align 4
  store i32 0, i32* %9, align 4
  br label %19

19:                                               ; preds = %40, %2
  %20 = load i32, i32* %9, align 4
  %21 = icmp slt i32 %20, 1000
  br i1 %21, label %22, label %43

22:                                               ; preds = %19
  %23 = load i32, i32* %9, align 4
  %24 = sext i32 %23 to i64
  %25 = getelementptr inbounds [1000 x i32], [1000 x i32]* %16, i64 0, i64 %24
  store i32 0, i32* %25, align 4
  store i32 0, i32* %10, align 4
  br label %26

26:                                               ; preds = %36, %22
  %27 = load i32, i32* %10, align 4
  %28 = icmp slt i32 %27, 1000
  br i1 %28, label %29, label %39

29:                                               ; preds = %26
  %30 = load i32, i32* %9, align 4
  %31 = sext i32 %30 to i64
  %32 = getelementptr inbounds [1000 x [1000 x i32]], [1000 x [1000 x i32]]* %17, i64 0, i64 %31
  %33 = load i32, i32* %10, align 4
  %34 = sext i32 %33 to i64
  %35 = getelementptr inbounds [1000 x i32], [1000 x i32]* %32, i64 0, i64 %34
  store i32 0, i32* %35, align 4
  br label %36

36:                                               ; preds = %29
  %37 = load i32, i32* %10, align 4
  %38 = add nsw i32 %37, 1
  store i32 %38, i32* %10, align 4
  br label %26

39:                                               ; preds = %26
  br label %40

40:                                               ; preds = %39
  %41 = load i32, i32* %9, align 4
  %42 = add nsw i32 %41, 1
  store i32 %42, i32* %9, align 4
  br label %19

43:                                               ; preds = %19
  %44 = call i32 (i8*, ...) @__isoc99_scanf(i8* getelementptr inbounds ([3 x i8], [3 x i8]* @.str, i64 0, i64 0), i32* %6)
  store i32 0, i32* %7, align 4
  br label %45

45:                                               ; preds = %91, %43
  %46 = load i32, i32* %7, align 4
  %47 = load i32, i32* %6, align 4
  %48 = icmp slt i32 %46, %47
  br i1 %48, label %49, label %94

49:                                               ; preds = %45
  store i32 0, i32* %8, align 4
  br label %50

50:                                               ; preds = %87, %49
  %51 = load i32, i32* %8, align 4
  %52 = load i32, i32* %6, align 4
  %53 = icmp slt i32 %51, %52
  br i1 %53, label %54, label %90

54:                                               ; preds = %50
  %55 = load i32, i32* %7, align 4
  %56 = sext i32 %55 to i64
  %57 = getelementptr inbounds [1000 x [1000 x i32]], [1000 x [1000 x i32]]* %15, i64 0, i64 %56
  %58 = load i32, i32* %8, align 4
  %59 = sext i32 %58 to i64
  %60 = getelementptr inbounds [1000 x i32], [1000 x i32]* %57, i64 0, i64 %59
  %61 = call i32 (i8*, ...) @__isoc99_scanf(i8* getelementptr inbounds ([3 x i8], [3 x i8]* @.str, i64 0, i64 0), i32* %60)
  %62 = load i32, i32* %7, align 4
  %63 = sext i32 %62 to i64
  %64 = getelementptr inbounds [1000 x [1000 x i32]], [1000 x [1000 x i32]]* %15, i64 0, i64 %63
  %65 = load i32, i32* %8, align 4
  %66 = sext i32 %65 to i64
  %67 = getelementptr inbounds [1000 x i32], [1000 x i32]* %64, i64 0, i64 %66
  %68 = load i32, i32* %67, align 4
  %69 = icmp eq i32 %68, 0
  br i1 %69, label %70, label %86

70:                                               ; preds = %54
  %71 = load i32, i32* %7, align 4
  %72 = sext i32 %71 to i64
  %73 = getelementptr inbounds [1000 x i32], [1000 x i32]* %16, i64 0, i64 %72
  %74 = load i32, i32* %73, align 4
  %75 = add nsw i32 %74, 1
  %76 = load i32, i32* %7, align 4
  %77 = sext i32 %76 to i64
  %78 = getelementptr inbounds [1000 x i32], [1000 x i32]* %16, i64 0, i64 %77
  store i32 %75, i32* %78, align 4
  %79 = load i32, i32* %8, align 4
  %80 = load i32, i32* %7, align 4
  %81 = sext i32 %80 to i64
  %82 = getelementptr inbounds [1000 x [1000 x i32]], [1000 x [1000 x i32]]* %17, i64 0, i64 %81
  %83 = load i32, i32* %8, align 4
  %84 = sext i32 %83 to i64
  %85 = getelementptr inbounds [1000 x i32], [1000 x i32]* %82, i64 0, i64 %84
  store i32 %79, i32* %85, align 4
  br label %86

86:                                               ; preds = %70, %54
  br label %87

87:                                               ; preds = %86
  %88 = load i32, i32* %8, align 4
  %89 = add nsw i32 %88, 1
  store i32 %89, i32* %8, align 4
  br label %50

90:                                               ; preds = %50
  br label %91

91:                                               ; preds = %90
  %92 = load i32, i32* %7, align 4
  %93 = add nsw i32 %92, 1
  store i32 %93, i32* %7, align 4
  br label %45

94:                                               ; preds = %45
  store i32 0, i32* %11, align 4
  br label %95

95:                                               ; preds = %196, %94
  %96 = load i32, i32* %11, align 4
  %97 = load i32, i32* %6, align 4
  %98 = icmp slt i32 %96, %97
  br i1 %98, label %99, label %199

99:                                               ; preds = %95
  %100 = load i32, i32* %11, align 4
  %101 = sext i32 %100 to i64
  %102 = getelementptr inbounds [1000 x i32], [1000 x i32]* %16, i64 0, i64 %101
  %103 = load i32, i32* %102, align 4
  %104 = icmp eq i32 %103, 2
  br i1 %104, label %105, label %195

105:                                              ; preds = %99
  store i32 0, i32* %12, align 4
  br label %106

106:                                              ; preds = %134, %105
  %107 = load i32, i32* %12, align 4
  %108 = load i32, i32* %6, align 4
  %109 = icmp slt i32 %107, %108
  br i1 %109, label %110, label %137

110:                                              ; preds = %106
  %111 = load i32, i32* %11, align 4
  %112 = sext i32 %111 to i64
  %113 = getelementptr inbounds [1000 x [1000 x i32]], [1000 x [1000 x i32]]* %17, i64 0, i64 %112
  %114 = load i32, i32* %12, align 4
  %115 = sext i32 %114 to i64
  %116 = getelementptr inbounds [1000 x i32], [1000 x i32]* %113, i64 0, i64 %115
  %117 = load i32, i32* %116, align 4
  %118 = icmp sgt i32 %117, 0
  br i1 %118, label %119, label %133

119:                                              ; preds = %110
  %120 = load i32, i32* %11, align 4
  %121 = sext i32 %120 to i64
  %122 = getelementptr inbounds [1000 x [1000 x i32]], [1000 x [1000 x i32]]* %17, i64 0, i64 %121
  %123 = load i32, i32* %12, align 4
  %124 = sext i32 %123 to i64
  %125 = getelementptr inbounds [1000 x i32], [1000 x i32]* %122, i64 0, i64 %124
  %126 = load i32, i32* %125, align 4
  %127 = load i32, i32* %11, align 4
  %128 = sext i32 %127 to i64
  %129 = getelementptr inbounds [1000 x [1000 x i32]], [1000 x [1000 x i32]]* %18, i64 0, i64 %128
  %130 = load i32, i32* %12, align 4
  %131 = sext i32 %130 to i64
  %132 = getelementptr inbounds [1000 x i32], [1000 x i32]* %129, i64 0, i64 %131
  store i32 %126, i32* %132, align 4
  br label %137

133:                                              ; preds = %110
  br label %134

134:                                              ; preds = %133
  %135 = load i32, i32* %12, align 4
  %136 = add nsw i32 %135, 1
  store i32 %136, i32* %12, align 4
  br label %106

137:                                              ; preds = %119, %106
  store i32 0, i32* %13, align 4
  br label %138

138:                                              ; preds = %173, %137
  %139 = load i32, i32* %13, align 4
  %140 = load i32, i32* %6, align 4
  %141 = icmp slt i32 %139, %140
  br i1 %141, label %142, label %176

142:                                              ; preds = %138
  %143 = load i32, i32* %11, align 4
  %144 = sext i32 %143 to i64
  %145 = getelementptr inbounds [1000 x [1000 x i32]], [1000 x [1000 x i32]]* %17, i64 0, i64 %144
  %146 = load i32, i32* %13, align 4
  %147 = sext i32 %146 to i64
  %148 = getelementptr inbounds [1000 x i32], [1000 x i32]* %145, i64 0, i64 %147
  %149 = load i32, i32* %148, align 4
  %150 = load i32, i32* %11, align 4
  %151 = sext i32 %150 to i64
  %152 = getelementptr inbounds [1000 x [1000 x i32]], [1000 x [1000 x i32]]* %18, i64 0, i64 %151
  %153 = load i32, i32* %12, align 4
  %154 = sext i32 %153 to i64
  %155 = getelementptr inbounds [1000 x i32], [1000 x i32]* %152, i64 0, i64 %154
  %156 = load i32, i32* %155, align 4
  %157 = icmp sgt i32 %149, %156
  br i1 %157, label %158, label %172

158:                                              ; preds = %142
  %159 = load i32, i32* %11, align 4
  %160 = sext i32 %159 to i64
  %161 = getelementptr inbounds [1000 x [1000 x i32]], [1000 x [1000 x i32]]* %17, i64 0, i64 %160
  %162 = load i32, i32* %13, align 4
  %163 = sext i32 %162 to i64
  %164 = getelementptr inbounds [1000 x i32], [1000 x i32]* %161, i64 0, i64 %163
  %165 = load i32, i32* %164, align 4
  %166 = load i32, i32* %11, align 4
  %167 = sext i32 %166 to i64
  %168 = getelementptr inbounds [1000 x [1000 x i32]], [1000 x [1000 x i32]]* %18, i64 0, i64 %167
  %169 = load i32, i32* %13, align 4
  %170 = sext i32 %169 to i64
  %171 = getelementptr inbounds [1000 x i32], [1000 x i32]* %168, i64 0, i64 %170
  store i32 %165, i32* %171, align 4
  br label %176

172:                                              ; preds = %142
  br label %173

173:                                              ; preds = %172
  %174 = load i32, i32* %13, align 4
  %175 = add nsw i32 %174, 1
  store i32 %175, i32* %13, align 4
  br label %138

176:                                              ; preds = %158, %138
  %177 = load i32, i32* %14, align 4
  %178 = load i32, i32* %11, align 4
  %179 = sext i32 %178 to i64
  %180 = getelementptr inbounds [1000 x [1000 x i32]], [1000 x [1000 x i32]]* %18, i64 0, i64 %179
  %181 = load i32, i32* %13, align 4
  %182 = sext i32 %181 to i64
  %183 = getelementptr inbounds [1000 x i32], [1000 x i32]* %180, i64 0, i64 %182
  %184 = load i32, i32* %183, align 4
  %185 = add nsw i32 %177, %184
  %186 = load i32, i32* %11, align 4
  %187 = sext i32 %186 to i64
  %188 = getelementptr inbounds [1000 x [1000 x i32]], [1000 x [1000 x i32]]* %18, i64 0, i64 %187
  %189 = load i32, i32* %12, align 4
  %190 = sext i32 %189 to i64
  %191 = getelementptr inbounds [1000 x i32], [1000 x i32]* %188, i64 0, i64 %190
  %192 = load i32, i32* %191, align 4
  %193 = sub nsw i32 %185, %192
  %194 = sub nsw i32 %193, 1
  store i32 %194, i32* %14, align 4
  br label %195

195:                                              ; preds = %176, %99
  br label %196

196:                                              ; preds = %195
  %197 = load i32, i32* %11, align 4
  %198 = add nsw i32 %197, 1
  store i32 %198, i32* %11, align 4
  br label %95

199:                                              ; preds = %95
  %200 = load i32, i32* %14, align 4
  %201 = call i32 (i8*, ...) @printf(i8* getelementptr inbounds ([3 x i8], [3 x i8]* @.str, i64 0, i64 0), i32 %200)
  ret i32 0
}

declare dso_local i32 @__isoc99_scanf(i8*, ...) #1

declare dso_local i32 @printf(i8*, ...) #1


!llvm.module.flags = !{!0}
!llvm.ident = !{!1}

!0 = !{i32 1, !"wchar_size", i32 4}
!1 = !{!"clang version 10.0.0-4ubuntu1 "}
